target datalayout = "e-m:e-p270:32:32-p271:32:32-p272:64:64-i64:64-i128:128-f80:128-n8:16:32:64-S128"
target triple = "x86_64-pc-linux-gnu"

%struct.AVFilterContext = type { ptr, ptr, ptr, ptr, ptr, i32, ptr, ptr, i32, ptr, ptr, i32, i32, ptr, ptr, ptr, ptr, i32, ptr, i32, i32 }
%struct.ReadEIA608Context = type { ptr, i32, i32, float, i32, i32, i32, i32, i32, ptr, [2 x ptr] }
%struct.ScanItem = type { i32, i32, i32, i32, ptr, [2 x i8], ptr, ptr }
%struct.AVFilterLink = type { ptr, ptr, ptr, ptr, i32, i32, i32, i32, %struct.AVRational, i32, i32, i32, %struct.AVChannelLayout, %struct.AVRational, ptr, i32, %struct.AVFilterFormatsConfig, %struct.AVFilterFormatsConfig }
%struct.AVChannelLayout = type { i32, i32, %union.anon.1, ptr }
%union.anon.1 = type { i64 }
%struct.AVRational = type { i32, i32 }
%struct.AVFilterFormatsConfig = type { ptr, ptr, ptr, ptr, ptr }

@.str.9 = private unnamed_addr constant [40 x i8] c"Last line to scan too large, clipping.\0A\00", align 1
@.str.10 = private unnamed_addr constant [16 x i8] c"Invalid range.\0A\00", align 1

; Function Attrs: nounwind uwtable
define internal i32 @config_filter(ptr noundef %0, i32 noundef %1, i32 noundef %2) #1 {
  %4 = alloca i32, align 4
  %5 = alloca ptr, align 8
  %6 = alloca i32, align 4
  %7 = alloca i32, align 4
  %8 = alloca ptr, align 8
  %9 = alloca ptr, align 8
  %10 = alloca i32, align 4
  %11 = alloca i32, align 4
  %12 = alloca i32, align 4
  %13 = alloca i32, align 4
  %14 = alloca ptr, align 8
  store ptr %0, ptr %5, align 8, !tbaa !4
  store i32 %1, ptr %6, align 4, !tbaa !24
  store i32 %2, ptr %7, align 4, !tbaa !24
  call void @llvm.lifetime.start.p0(i64 8, ptr %8) #8
  %15 = load ptr, ptr %5, align 8, !tbaa !4
  %16 = getelementptr inbounds nuw %struct.AVFilterContext, ptr %15, i32 0, i32 9
  %17 = load ptr, ptr %16, align 8, !tbaa !9
  store ptr %17, ptr %8, align 8, !tbaa !22
  call void @llvm.lifetime.start.p0(i64 8, ptr %9) #8
  %18 = load ptr, ptr %5, align 8, !tbaa !4
  %19 = getelementptr inbounds nuw %struct.AVFilterContext, ptr %18, i32 0, i32 4
  %20 = load ptr, ptr %19, align 8, !tbaa !65
  %21 = getelementptr inbounds ptr, ptr %20, i64 0
  %22 = load ptr, ptr %21, align 8, !tbaa !36
  store ptr %22, ptr %9, align 8, !tbaa !36
  call void @llvm.lifetime.start.p0(i64 4, ptr %10) #8
  %23 = load ptr, ptr %9, align 8, !tbaa !36
  %24 = getelementptr inbounds nuw %struct.AVFilterLink, ptr %23, i32 0, i32 6
  %25 = load i32, ptr %24, align 8, !tbaa !66
  %26 = add nsw i32 %25, 25
  store i32 %26, ptr %10, align 4, !tbaa !24
  %27 = load i32, ptr %7, align 4, !tbaa !24
  %28 = load ptr, ptr %9, align 8, !tbaa !36
  %29 = getelementptr inbounds nuw %struct.AVFilterLink, ptr %28, i32 0, i32 7
  %30 = load i32, ptr %29, align 4, !tbaa !117
  %31 = icmp sge i32 %27, %30
  br i1 %31, label %32, label %38

32:                                               ; preds = %3
  %33 = load ptr, ptr %5, align 8, !tbaa !4
  call void (ptr, i32, ptr, ...) @av_log(ptr noundef %33, i32 noundef 24, ptr noundef @.str.9)
  %34 = load ptr, ptr %9, align 8, !tbaa !36
  %35 = getelementptr inbounds nuw %struct.AVFilterLink, ptr %34, i32 0, i32 7
  %36 = load i32, ptr %35, align 4, !tbaa !117
  %37 = sub nsw i32 %36, 1
  store i32 %37, ptr %7, align 4, !tbaa !24
  br label %38

38:                                               ; preds = %32, %3
  %39 = load i32, ptr %6, align 4, !tbaa !24
  %40 = load i32, ptr %7, align 4, !tbaa !24
  %41 = icmp sgt i32 %39, %40
  br i1 %41, label %42, label %44

42:                                               ; preds = %38
  %43 = load ptr, ptr %5, align 8, !tbaa !4
  call void (ptr, i32, ptr, ...) @av_log(ptr noundef %43, i32 noundef 16, ptr noundef @.str.10)
  store i32 -22, ptr %4, align 4
  store i32 1, ptr %11, align 4
  br label %181

44:                                               ; preds = %38
  %45 = load ptr, ptr %8, align 8, !tbaa !22
  %46 = getelementptr inbounds nuw %struct.ReadEIA608Context, ptr %45, i32 0, i32 8
  %47 = load i32, ptr %46, align 4, !tbaa !25
  %48 = load i32, ptr %7, align 4, !tbaa !24
  %49 = load i32, ptr %6, align 4, !tbaa !24
  %50 = sub nsw i32 %48, %49
  %51 = add nsw i32 %50, 1
  %52 = icmp slt i32 %47, %51
  br i1 %52, label %53, label %99

53:                                               ; preds = %44
  call void @llvm.lifetime.start.p0(i64 4, ptr %12) #8
  %54 = load i32, ptr %7, align 4, !tbaa !24
  %55 = load i32, ptr %6, align 4, !tbaa !24
  %56 = sub nsw i32 %54, %55
  %57 = add nsw i32 %56, 1
  %58 = load ptr, ptr %8, align 8, !tbaa !22
  %59 = getelementptr inbounds nuw %struct.ReadEIA608Context, ptr %58, i32 0, i32 8
  %60 = load i32, ptr %59, align 4, !tbaa !25
  %61 = sub nsw i32 %57, %60
  store i32 %61, ptr %12, align 4, !tbaa !24
  %62 = load ptr, ptr %8, align 8, !tbaa !22
  %63 = getelementptr inbounds nuw %struct.ReadEIA608Context, ptr %62, i32 0, i32 9
  %64 = load ptr, ptr %63, align 8, !tbaa !29
  %65 = load i32, ptr %7, align 4, !tbaa !24
  %66 = load i32, ptr %6, align 4, !tbaa !24
  %67 = sub nsw i32 %65, %66
  %68 = add nsw i32 %67, 1
  %69 = sext i32 %68 to i64
  %70 = call ptr @av_realloc_f(ptr noundef %64, i64 noundef %69, i64 noundef 48)
  %71 = load ptr, ptr %8, align 8, !tbaa !22
  %72 = getelementptr inbounds nuw %struct.ReadEIA608Context, ptr %71, i32 0, i32 9
  store ptr %70, ptr %72, align 8, !tbaa !29
  %73 = load ptr, ptr %8, align 8, !tbaa !22
  %74 = getelementptr inbounds nuw %struct.ReadEIA608Context, ptr %73, i32 0, i32 9
  %75 = load ptr, ptr %74, align 8, !tbaa !29
  %76 = icmp ne ptr %75, null
  br i1 %76, label %78, label %77

77:                                               ; preds = %53
  store i32 -12, ptr %4, align 4
  store i32 1, ptr %11, align 4
  br label %96

78:                                               ; preds = %53
  %79 = load ptr, ptr %8, align 8, !tbaa !22
  %80 = getelementptr inbounds nuw %struct.ReadEIA608Context, ptr %79, i32 0, i32 9
  %81 = load ptr, ptr %80, align 8, !tbaa !29
  %82 = load ptr, ptr %8, align 8, !tbaa !22
  %83 = getelementptr inbounds nuw %struct.ReadEIA608Context, ptr %82, i32 0, i32 8
  %84 = load i32, ptr %83, align 4, !tbaa !25
  %85 = sext i32 %84 to i64
  %86 = getelementptr inbounds %struct.ScanItem, ptr %81, i64 %85
  %87 = load i32, ptr %12, align 4, !tbaa !24
  %88 = sext i32 %87 to i64
  %89 = mul i64 %88, 48
  call void @llvm.memset.p0.i64(ptr align 8 %86, i8 0, i64 %89, i1 false)
  %90 = load i32, ptr %7, align 4, !tbaa !24
  %91 = load i32, ptr %6, align 4, !tbaa !24
  %92 = sub nsw i32 %90, %91
  %93 = add nsw i32 %92, 1
  %94 = load ptr, ptr %8, align 8, !tbaa !22
  %95 = getelementptr inbounds nuw %struct.ReadEIA608Context, ptr %94, i32 0, i32 8
  store i32 %93, ptr %95, align 4, !tbaa !25
  store i32 0, ptr %11, align 4
  br label %96

96:                                               ; preds = %78, %77
  call void @llvm.lifetime.end.p0(i64 4, ptr %12) #8
  %97 = load i32, ptr %11, align 4
  switch i32 %97, label %181 [
    i32 0, label %98
  ]

98:                                               ; preds = %96
  br label %99

99:                                               ; preds = %98, %44
  call void @llvm.lifetime.start.p0(i64 4, ptr %13) #8
  store i32 0, ptr %13, align 4, !tbaa !24
  br label %100

100:                                              ; preds = %169, %99
  %101 = load i32, ptr %13, align 4, !tbaa !24
  %102 = load ptr, ptr %8, align 8, !tbaa !22
  %103 = getelementptr inbounds nuw %struct.ReadEIA608Context, ptr %102, i32 0, i32 8
  %104 = load i32, ptr %103, align 4, !tbaa !25
  %105 = icmp slt i32 %101, %104
  br i1 %105, label %107, label %106

106:                                              ; preds = %100
  store i32 2, ptr %11, align 4
  br label %172

107:                                              ; preds = %100
  call void @llvm.lifetime.start.p0(i64 8, ptr %14) #8
  %108 = load ptr, ptr %8, align 8, !tbaa !22
  %109 = getelementptr inbounds nuw %struct.ReadEIA608Context, ptr %108, i32 0, i32 9
  %110 = load ptr, ptr %109, align 8, !tbaa !29
  %111 = load i32, ptr %13, align 4, !tbaa !24
  %112 = sext i32 %111 to i64
  %113 = getelementptr inbounds %struct.ScanItem, ptr %110, i64 %112
  store ptr %113, ptr %14, align 8, !tbaa !30
  %114 = load ptr, ptr %14, align 8, !tbaa !30
  %115 = getelementptr inbounds nuw %struct.ScanItem, ptr %114, i32 0, i32 4
  %116 = load ptr, ptr %115, align 8, !tbaa !85
  %117 = icmp ne ptr %116, null
  br i1 %117, label %127, label %118

118:                                              ; preds = %107
  %119 = load ptr, ptr %8, align 8, !tbaa !22
  %120 = getelementptr inbounds nuw %struct.ReadEIA608Context, ptr %119, i32 0, i32 7
  %121 = load i32, ptr %120, align 8, !tbaa !63
  %122 = add nsw i32 %121, 1
  %123 = sext i32 %122 to i64
  %124 = call noalias ptr @av_calloc(i64 noundef %123, i64 noundef 8)
  %125 = load ptr, ptr %14, align 8, !tbaa !30
  %126 = getelementptr inbounds nuw %struct.ScanItem, ptr %125, i32 0, i32 4
  store ptr %124, ptr %126, align 8, !tbaa !85
  br label %127

127:                                              ; preds = %118, %107
  %128 = load ptr, ptr %14, align 8, !tbaa !30
  %129 = getelementptr inbounds nuw %struct.ScanItem, ptr %128, i32 0, i32 7
  %130 = load ptr, ptr %129, align 8, !tbaa !68
  %131 = icmp ne ptr %130, null
  br i1 %131, label %138, label %132

132:                                              ; preds = %127
  %133 = load i32, ptr %10, align 4, !tbaa !24
  %134 = sext i32 %133 to i64
  %135 = call noalias ptr @av_calloc(i64 noundef %134, i64 noundef 24)
  %136 = load ptr, ptr %14, align 8, !tbaa !30
  %137 = getelementptr inbounds nuw %struct.ScanItem, ptr %136, i32 0, i32 7
  store ptr %135, ptr %137, align 8, !tbaa !68
  br label %138

138:                                              ; preds = %132, %127
  %139 = load ptr, ptr %14, align 8, !tbaa !30
  %140 = getelementptr inbounds nuw %struct.ScanItem, ptr %139, i32 0, i32 6
  %141 = load ptr, ptr %140, align 8, !tbaa !74
  %142 = icmp ne ptr %141, null
  br i1 %142, label %149, label %143

143:                                              ; preds = %138
  %144 = load i32, ptr %10, align 4, !tbaa !24
  %145 = sext i32 %144 to i64
  %146 = call noalias ptr @av_calloc(i64 noundef %145, i64 noundef 8)
  %147 = load ptr, ptr %14, align 8, !tbaa !30
  %148 = getelementptr inbounds nuw %struct.ScanItem, ptr %147, i32 0, i32 6
  store ptr %146, ptr %148, align 8, !tbaa !74
  br label %149

149:                                              ; preds = %143, %138
  %150 = load ptr, ptr %14, align 8, !tbaa !30
  %151 = getelementptr inbounds nuw %struct.ScanItem, ptr %150, i32 0, i32 7
  %152 = load ptr, ptr %151, align 8, !tbaa !68
  %153 = icmp ne ptr %152, null
  br i1 %153, label %154, label %164

154:                                              ; preds = %149
  %155 = load ptr, ptr %14, align 8, !tbaa !30
  %156 = getelementptr inbounds nuw %struct.ScanItem, ptr %155, i32 0, i32 6
  %157 = load ptr, ptr %156, align 8, !tbaa !74
  %158 = icmp ne ptr %157, null
  br i1 %158, label %159, label %164

159:                                              ; preds = %154
  %160 = load ptr, ptr %14, align 8, !tbaa !30
  %161 = getelementptr inbounds nuw %struct.ScanItem, ptr %160, i32 0, i32 4
  %162 = load ptr, ptr %161, align 8, !tbaa !85
  %163 = icmp ne ptr %162, null
  br i1 %163, label %165, label %164

164:                                              ; preds = %159, %154, %149
  store i32 -12, ptr %4, align 4
  store i32 1, ptr %11, align 4
  br label %166

165:                                              ; preds = %159
  store i32 0, ptr %11, align 4
  br label %166

166:                                              ; preds = %165, %164
  call void @llvm.lifetime.end.p0(i64 8, ptr %14) #8
  %167 = load i32, ptr %11, align 4
  switch i32 %167, label %172 [
    i32 0, label %168
  ]

168:                                              ; preds = %166
  br label %169

169:                                              ; preds = %168
  %170 = load i32, ptr %13, align 4, !tbaa !24
  %171 = add nsw i32 %170, 1
  store i32 %171, ptr %13, align 4, !tbaa !24
  br label %100, !llvm.loop !118

172:                                              ; preds = %166, %106
  call void @llvm.lifetime.end.p0(i64 4, ptr %13) #8
  %173 = load i32, ptr %11, align 4
  switch i32 %173, label %181 [
    i32 2, label %174
  ]

174:                                              ; preds = %172
  %175 = load i32, ptr %6, align 4, !tbaa !24
  %176 = load ptr, ptr %8, align 8, !tbaa !22
  %177 = getelementptr inbounds nuw %struct.ReadEIA608Context, ptr %176, i32 0, i32 1
  store i32 %175, ptr %177, align 8, !tbaa !34
  %178 = load i32, ptr %7, align 4, !tbaa !24
  %179 = load ptr, ptr %8, align 8, !tbaa !22
  %180 = getelementptr inbounds nuw %struct.ReadEIA608Context, ptr %179, i32 0, i32 2
  store i32 %178, ptr %180, align 4, !tbaa !35
  store i32 0, ptr %4, align 4
  store i32 1, ptr %11, align 4
  br label %181

181:                                              ; preds = %174, %172, %96, %42
  call void @llvm.lifetime.end.p0(i64 4, ptr %10) #8
  call void @llvm.lifetime.end.p0(i64 8, ptr %9) #8
  call void @llvm.lifetime.end.p0(i64 8, ptr %8) #8
  %182 = load i32, ptr %4, align 4
  ret i32 %182
}