; Function Attrs: nounwind uwtable
define internal fastcc range(i32 -22, 1) i32 @config_filter(ptr noundef %0, i32 noundef %1, i32 noundef %2) unnamed_addr #1 {
  %4 = getelementptr inbounds nuw i8, ptr %0, i64 72
  %5 = load ptr, ptr %4, align 8, !tbaa !4
  %6 = getelementptr inbounds nuw i8, ptr %0, i64 32
  %7 = load ptr, ptr %6, align 8, !tbaa !55
  %8 = load ptr, ptr %7, align 8, !tbaa !39
  %9 = getelementptr inbounds nuw i8, ptr %8, i64 40
  %10 = load i32, ptr %9, align 8, !tbaa !56
  %11 = add nsw i32 %10, 25
  %12 = getelementptr inbounds nuw i8, ptr %8, i64 44
  %13 = load i32, ptr %12, align 4, !tbaa !103
  %.not = icmp slt i32 %2, %13
  br i1 %.not, label %17, label %14

14:                                               ; preds = %3
  tail call void (ptr, i32, ptr, ...) @av_log(ptr noundef nonnull %0, i32 noundef 24, ptr noundef nonnull @.str.9) #10
  %15 = load i32, ptr %12, align 4, !tbaa !103
  %16 = add nsw i32 %15, -1
  br label %17

17:                                               ; preds = %14, %3
  %.054 = phi i32 [ %16, %14 ], [ %2, %3 ]
  %18 = icmp sgt i32 %1, %.054
  br i1 %18, label %19, label %20

19:                                               ; preds = %17
  tail call void (ptr, i32, ptr, ...) @av_log(ptr noundef nonnull %0, i32 noundef 16, ptr noundef nonnull @.str.10) #10
  br label %.critedge

20:                                               ; preds = %17
  %21 = getelementptr inbounds nuw i8, ptr %5, i64 36
  %22 = load i32, ptr %21, align 4, !tbaa !20
  %23 = sub nsw i32 %.054, %1
  %24 = add nsw i32 %23, 1
  %.not63 = icmp sgt i32 %22, %23
  br i1 %.not63, label %37, label %25

25:                                               ; preds = %20
  %26 = getelementptr inbounds nuw i8, ptr %5, i64 40
  %27 = load ptr, ptr %26, align 8, !tbaa !24
  %28 = sext i32 %24 to i64
  %29 = tail call ptr @av_realloc_f(ptr noundef %27, i64 noundef %28, i64 noundef 48) #10
  store ptr %29, ptr %26, align 8, !tbaa !24
  %.not64.not = icmp eq ptr %29, null
  br i1 %.not64.not, label %.critedge, label %30

30:                                               ; preds = %25
  %31 = sub nsw i32 %24, %22
  %32 = load i32, ptr %21, align 4, !tbaa !20
  %33 = sext i32 %32 to i64
  %34 = getelementptr inbounds %struct.ScanItem, ptr %29, i64 %33
  %35 = sext i32 %31 to i64
  %36 = mul nsw i64 %35, 48
  tail call void @llvm.memset.p0.i64(ptr nonnull align 8 %34, i8 0, i64 %36, i1 false)
  store i32 %24, ptr %21, align 4, !tbaa !20
  br label %37

37:                                               ; preds = %30, %20
  %38 = phi i32 [ %24, %30 ], [ %22, %20 ]
  %.not7176 = icmp sgt i32 %38, 0
  br i1 %.not7176, label %.lr.ph, label %.critedge75

.lr.ph:                                           ; preds = %37
  %39 = getelementptr inbounds nuw i8, ptr %5, i64 40
  %40 = getelementptr inbounds nuw i8, ptr %5, i64 32
  %41 = sext i32 %11 to i64
  br label %45

42:                                               ; preds = %.critedge73
  %indvars.iv.next = add nuw nsw i64 %indvars.iv, 1
  %43 = load i32, ptr %21, align 4, !tbaa !20
  %44 = sext i32 %43 to i64
  %.not71 = icmp slt i64 %indvars.iv.next, %44
  br i1 %.not71, label %45, label %.critedge75, !llvm.loop !104

45:                                               ; preds = %.lr.ph, %42
  %indvars.iv = phi i64 [ 0, %.lr.ph ], [ %indvars.iv.next, %42 ]
  %46 = load ptr, ptr %39, align 8, !tbaa !24
  %47 = getelementptr inbounds nuw %struct.ScanItem, ptr %46, i64 %indvars.iv
  %48 = getelementptr inbounds nuw i8, ptr %47, i64 16
  %49 = load ptr, ptr %48, align 8, !tbaa !59
  %.not65 = icmp eq ptr %49, null
  br i1 %.not65, label %50, label %55

50:                                               ; preds = %45
  %51 = load i32, ptr %40, align 8, !tbaa !53
  %52 = add nsw i32 %51, 1
  %53 = sext i32 %52 to i64
  %54 = tail call noalias ptr @av_calloc(i64 noundef %53, i64 noundef 8) #10
  store ptr %54, ptr %48, align 8, !tbaa !59
  br label %55

55:                                               ; preds = %50, %45
  %56 = getelementptr inbounds nuw i8, ptr %47, i64 40
  %57 = load ptr, ptr %56, align 8, !tbaa !57
  %.not66 = icmp eq ptr %57, null
  br i1 %.not66, label %58, label %61

58:                                               ; preds = %55
  %59 = tail call noalias ptr @av_calloc(i64 noundef %41, i64 noundef 24) #10
  store ptr %59, ptr %56, align 8, !tbaa !57
  %60 = icmp eq ptr %59, null
  br label %61

61:                                               ; preds = %58, %55
  %.not6880 = phi i1 [ %60, %58 ], [ false, %55 ]
  %62 = getelementptr inbounds nuw i8, ptr %47, i64 32
  %63 = load ptr, ptr %62, align 8, !tbaa !80
  %.not67 = icmp eq ptr %63, null
  br i1 %.not67, label %64, label %.thread

64:                                               ; preds = %61
  %65 = tail call noalias ptr @av_calloc(i64 noundef %41, i64 noundef 8) #10
  store ptr %65, ptr %62, align 8, !tbaa !80
  %.pre = load ptr, ptr %56, align 8, !tbaa !57
  %66 = icmp eq ptr %65, null
  %.not68 = icmp eq ptr %.pre, null
  %brmerge = select i1 %.not68, i1 true, i1 %66
  br i1 %brmerge, label %.critedge, label %.critedge73

.thread:                                          ; preds = %61
  br i1 %.not6880, label %.critedge, label %.critedge73

.critedge73:                                      ; preds = %64, %.thread
  %67 = load ptr, ptr %48, align 8, !tbaa !59
  %.not70 = icmp eq ptr %67, null
  br i1 %.not70, label %.critedge, label %42

.critedge75:                                      ; preds = %42, %37
  %68 = getelementptr inbounds nuw i8, ptr %5, i64 8
  store i32 %1, ptr %68, align 8, !tbaa !27
  %69 = getelementptr inbounds nuw i8, ptr %5, i64 12
  store i32 %.054, ptr %69, align 4, !tbaa !28
  br label %.critedge

.critedge:                                        ; preds = %.critedge73, %.thread, %64, %25, %.critedge75, %19
  %.0 = phi i32 [ -22, %19 ], [ 0, %.critedge75 ], [ -12, %25 ], [ -12, %64 ], [ -12, %.thread ], [ -12, %.critedge73 ]
  ret i32 %.0
}